(dp0
Vengine
p1
Vpdflatex
p2
sVpackages
p3
c__builtin__
set
p4
((lp5
Vmulticol
p6
aVlastpage
p7
aVfancyhdr
p8
aVamsmath
p9
aVlistings
p10
aVpdfpages
p11
aVgeometry
p12
aVenumerate
p13
aVcaption
p14
aVgraphicx
p15
aVsubcaption
p16
atp17
Rp18
sVfiles_with_guttermarks
p19
g4
((lp20
S'2020_trial.tex'
p21
aV/Users/norbert/Dropbox (UiO)/LAT/teaching/GEO4300/2020/exam/./2020_trial.tex
p22
atp23
Rp24
sVsynctex
p25
I01
s.