(dp0
Vengine
p1
S'pdflatex'
p2
sVpackages
p3
c__builtin__
set
p4
((lp5
Vmulticol
p6
aVlastpage
p7
aVfancyhdr
p8
aVamsmath
p9
aVlistings
p10
aVpdfpages
p11
aVgeometry
p12
aVenumerate
p13
aVcaption
p14
aVgraphicx
p15
aVsubcaption
p16
atp17
Rp18
sVfiles_with_guttermarks
p19
g4
((lp20
V/Users/norbert/Desktop/LAT/teaching/GEO4300/exam_2018/./exam_2018.tex
p21
aV/Users/norbert/Desktop/LAT/teaching/GEO4300/exam_2018/exam_2018.tex
p22
aS'exam_2018.tex'
p23
atp24
Rp25
sVsynctex
p26
I01
s.